(dp1
S'files'
p2
(dp3
S'samples_manager_migrations_0054_auto_20181212_1840'
p4
(dp5
S'index'
p6
(dp7
S'html_filename'
p8
S'samples_manager_migrations_0054_auto_20181212_1840.html'
p9
sS'name'
p10
S'samples_manager\\migrations\\0054_auto_20181212_1840'
p11
sS'nums'
p12
ccopy_reg
_reconstructor
p13
(ccoverage.results
Numbers
p14
c__builtin__
object
p15
NtRp16
(dp17
S'n_files'
p18
I1
sS'n_branches'
p19
I0
sS'n_statements'
p20
I5
sS'n_excluded'
p21
I0
sS'n_partial_branches'
p22
I0
sS'n_missing'
p23
I0
sS'n_missing_branches'
p24
I0
sbssS'hash'
p25
S'e\x02\x03e\x9eb.\xb1\xc7\xf5\xed\x04\x1f\xbf\xc3.'
p26
ssS'samples_manager_migrations_0017_irradation_status'
p27
(dp28
g6
(dp29
g8
S'samples_manager_migrations_0017_irradation_status.html'
p30
sg10
S'samples_manager\\migrations\\0017_irradation_status'
p31
sg12
g13
(g14
g15
NtRp32
(dp33
g18
I1
sg19
I0
sg20
I5
sg21
I0
sg22
I0
sg23
I0
sg24
I0
sbssg25
S'7\xa5\xf0\x95\x99\x92s\x81\xf7{\xc3\x01\xcf\xfa\xe8\xdd'
p34
ssS'samples_manager_migrations_0030_auto_20180711_1607'
p35
(dp36
g6
(dp37
g8
S'samples_manager_migrations_0030_auto_20180711_1607.html'
p38
sg10
S'samples_manager\\migrations\\0030_auto_20180711_1607'
p39
sg12
g13
(g14
g15
NtRp40
(dp41
g18
I1
sg19
I0
sg20
I5
sg21
I0
sg22
I0
sg23
I0
sg24
I0
sbssg25
S'I.K\x14g9S\x98\xa4=\xa1\x1f\x8c\xaf\xee\xd5'
p42
ssS'samples_manager_migrations_0010_auto_20180419_1145'
p43
(dp44
g6
(dp45
g8
S'samples_manager_migrations_0010_auto_20180419_1145.html'
p46
sg10
S'samples_manager\\migrations\\0010_auto_20180419_1145'
p47
sg12
g13
(g14
g15
NtRp48
(dp49
g18
I1
sg19
I0
sg20
I5
sg21
I0
sg22
I0
sg23
I0
sg24
I0
sbssg25
S'X\xf6%\x93\x89C\xd1\x0b\xc4\xaa(\x05\xf1U\x86\xcc'
p50
ssS'samples_manager_migrations_0018_experiments_emergency_phone'
p51
(dp52
g6
(dp53
g8
S'samples_manager_migrations_0018_experiments_emergency_phone.html'
p54
sg10
S'samples_manager\\migrations\\0018_experiments_emergency_phone'
p55
sg12
g13
(g14
g15
NtRp56
(dp57
g18
I1
sg19
I0
sg20
I5
sg21
I0
sg22
I0
sg23
I0
sg24
I0
sbssg25
S'jEI\xb7\xba\xb6\x02!c~\xa8\xdc\x89~am'
p58
ssS'samples_manager_models'
p59
(dp60
g6
(dp61
g8
S'samples_manager_models.html'
p62
sg10
S'samples_manager\\models'
p63
sg12
g13
(g14
g15
NtRp64
(dp65
g18
I1
sg19
I0
sg20
I242
sg21
I0
sg22
I0
sg23
I42
sg24
I0
sbssg25
S'\xb9z\x9f\xe6P+\x0c\x1c\\q\xc1\x02J\x98\xef\xd0'
p66
ssS'samples_manager_migrations_0034_auto_20180911_1725'
p67
(dp68
g6
(dp69
g8
S'samples_manager_migrations_0034_auto_20180911_1725.html'
p70
sg10
S'samples_manager\\migrations\\0034_auto_20180911_1725'
p71
sg12
g13
(g14
g15
NtRp72
(dp73
g18
I1
sg19
I0
sg20
I5
sg21
I0
sg22
I0
sg23
I0
sg24
I0
sbssg25
S'{\xc9T\xca\xa9Aq\x96\x9d\xb0\x05\t\x8d\x16\xd5\x98'
p74
ssS'manage'
p75
(dp76
g6
(dp77
g8
S'manage.html'
p78
sg10
g75
sg12
g13
(g14
g15
NtRp79
(dp80
g18
I1
sg19
I0
sg20
I6
sg21
I0
sg22
I0
sg23
I0
sg24
I0
sbssg25
S'*\x8b\x1b,\xa4E\x84o\xc5\x99\x07\x90B\x1a^\xf4'
p81
ssS'samples_manager_migrations_0016_auto_20180525_1629'
p82
(dp83
g6
(dp84
g8
S'samples_manager_migrations_0016_auto_20180525_1629.html'
p85
sg10
S'samples_manager\\migrations\\0016_auto_20180525_1629'
p86
sg12
g13
(g14
g15
NtRp87
(dp88
g18
I1
sg19
I0
sg20
I5
sg21
I0
sg22
I0
sg23
I0
sg24
I0
sbssg25
S'\x9b\xdc\x92m\xac\x84lE\xfb>\x7f\xf1\xf7In~'
p89
ssS'samples_manager_migrations_0015_auto_20180525_1626'
p90
(dp91
g6
(dp92
g8
S'samples_manager_migrations_0015_auto_20180525_1626.html'
p93
sg10
S'samples_manager\\migrations\\0015_auto_20180525_1626'
p94
sg12
g13
(g14
g15
NtRp95
(dp96
g18
I1
sg19
I0
sg20
I7
sg21
I0
sg22
I0
sg23
I0
sg24
I0
sbssg25
S'\xf8[\x8dN\tI\xb5\xc5\xa5\xc4Zj\x1dLW$'
p97
ssS'samples_manager_migrations_0005_auto_20180410_1124'
p98
(dp99
g6
(dp100
g8
S'samples_manager_migrations_0005_auto_20180410_1124.html'
p101
sg10
S'samples_manager\\migrations\\0005_auto_20180410_1124'
p102
sg12
g13
(g14
g15
NtRp103
(dp104
g18
I1
sg19
I0
sg20
I5
sg21
I0
sg22
I0
sg23
I0
sg24
I0
sbssg25
S'\x95\xd2\x1c\x8d\xa9\x85\xed\xb0\xaf?\x7fI#@`\xe3'
p105
ssS'samples_manager_migrations_0008_auto_20180418_1924'
p106
(dp107
g6
(dp108
g8
S'samples_manager_migrations_0008_auto_20180418_1924.html'
p109
sg10
S'samples_manager\\migrations\\0008_auto_20180418_1924'
p110
sg12
g13
(g14
g15
NtRp111
(dp112
g18
I1
sg19
I0
sg20
I5
sg21
I0
sg22
I0
sg23
I0
sg24
I0
sbssg25
S" @Z'I\xecon\x16\xd2p\x11\xd3A\t\xaa"
p113
ssS'samples_manager_admin'
p114
(dp115
g6
(dp116
g8
S'samples_manager_admin.html'
p117
sg10
S'samples_manager\\admin'
p118
sg12
g13
(g14
g15
NtRp119
(dp120
g18
I1
sg19
I0
sg20
I3
sg21
I0
sg22
I0
sg23
I0
sg24
I0
sbssg25
S'{\x89\xaaT(\x88\xe2)h\x81|I"\x9cI\xa1'
p121
ssS'samples_manager_migrations_0035_occupancies'
p122
(dp123
g6
(dp124
g8
S'samples_manager_migrations_0035_occupancies.html'
p125
sg10
S'samples_manager\\migrations\\0035_occupancies'
p126
sg12
g13
(g14
g15
NtRp127
(dp128
g18
I1
sg19
I0
sg20
I5
sg21
I0
sg22
I0
sg23
I0
sg24
I0
sbssg25
S'@\x12\xe7\xeb\xb0i\xcd\xa6\xbd\xd0\xc5VGKhR'
p129
ssS'samples_manager_migrations_0058_auto_20190121_1342'
p130
(dp131
g6
(dp132
g8
S'samples_manager_migrations_0058_auto_20190121_1342.html'
p133
sg10
S'samples_manager\\migrations\\0058_auto_20190121_1342'
p134
sg12
g13
(g14
g15
NtRp135
(dp136
g18
I1
sg19
I0
sg20
I5
sg21
I0
sg22
I0
sg23
I0
sg24
I0
sbssg25
S'\xfb\x8a\xb95f\xa4\xfe\xa3\x89dD\xf4\xab\xc4p\x98'
p137
ssS'samples_manager_migrations_0020_auto_20180608_1155'
p138
(dp139
g6
(dp140
g8
S'samples_manager_migrations_0020_auto_20180608_1155.html'
p141
sg10
S'samples_manager\\migrations\\0020_auto_20180608_1155'
p142
sg12
g13
(g14
g15
NtRp143
(dp144
g18
I1
sg19
I0
sg20
I5
sg21
I0
sg22
I0
sg23
I0
sg24
I0
sbssg25
S'4K\xa7\x1f\\~\xb2l\x1e=\x01\xc6l\xaa\xad\xf0'
p145
ssS'samples_manager_migrations_0044_auto_20181010_1113'
p146
(dp147
g6
(dp148
g8
S'samples_manager_migrations_0044_auto_20181010_1113.html'
p149
sg10
S'samples_manager\\migrations\\0044_auto_20181010_1113'
p150
sg12
g13
(g14
g15
NtRp151
(dp152
g18
I1
sg19
I0
sg20
I5
sg21
I0
sg22
I0
sg23
I0
sg24
I0
sbssg25
S'+t\xc3N\x9f\x0eB5\x05\x186\x1d\xdb\xce\x06\xc1'
p153
ssS'samples_manager_migrations_0011_auto_20180419_1146'
p154
(dp155
g6
(dp156
g8
S'samples_manager_migrations_0011_auto_20180419_1146.html'
p157
sg10
S'samples_manager\\migrations\\0011_auto_20180419_1146'
p158
sg12
g13
(g14
g15
NtRp159
(dp160
g18
I1
sg19
I0
sg20
I5
sg21
I0
sg22
I0
sg23
I0
sg24
I0
sbssg25
S'\x8c\xea\x1b\xf4\x89\xdb\xcad&\xd9}\xf3\xef\xe2\x8e\x1f'
p161
ssS'samples_manager_migrations_0043_userpreferences_table_theme'
p162
(dp163
g6
(dp164
g8
S'samples_manager_migrations_0043_userpreferences_table_theme.html'
p165
sg10
S'samples_manager\\migrations\\0043_userpreferences_table_theme'
p166
sg12
g13
(g14
g15
NtRp167
(dp168
g18
I1
sg19
I0
sg20
I5
sg21
I0
sg22
I0
sg23
I0
sg24
I0
sbssg25
S'q\xf2\x86\xa7r\xcd\xf1\xc2\xc9m\xb1\x93\xbcL\xbf\xaf'
p169
ssS'samples_manager_migrations_0056_auto_20181212_1846'
p170
(dp171
g6
(dp172
g8
S'samples_manager_migrations_0056_auto_20181212_1846.html'
p173
sg10
S'samples_manager\\migrations\\0056_auto_20181212_1846'
p174
sg12
g13
(g14
g15
NtRp175
(dp176
g18
I1
sg19
I0
sg20
I5
sg21
I0
sg22
I0
sg23
I0
sg24
I0
sbssg25
S'\xfc\xf0\xd0\xb2O\xd1\xaf\xc8\xad\xd3\xa2\x88\xca\x0e\xc8;'
p177
ssS'samples_manager_migrations_0004_auto_20180410_1121'
p178
(dp179
g6
(dp180
g8
S'samples_manager_migrations_0004_auto_20180410_1121.html'
p181
sg10
S'samples_manager\\migrations\\0004_auto_20180410_1121'
p182
sg12
g13
(g14
g15
NtRp183
(dp184
g18
I1
sg19
I0
sg20
I5
sg21
I0
sg22
I0
sg23
I0
sg24
I0
sbssg25
S'T\xf81\xf96o\xbc\xcfE\xff\xee\xc2\t\xa8\xed$'
p185
ssS'samples_manager_migrations_0002_auto_20180407_1912'
p186
(dp187
g6
(dp188
g8
S'samples_manager_migrations_0002_auto_20180407_1912.html'
p189
sg10
S'samples_manager\\migrations\\0002_auto_20180407_1912'
p190
sg12
g13
(g14
g15
NtRp191
(dp192
g18
I1
sg19
I0
sg20
I5
sg21
I0
sg22
I0
sg23
I0
sg24
I0
sbssg25
S'Eo~p\xc2$Y\xde\xb9\xb7\x93\x15\x88\xba\x1a;'
p193
ssS'samples_manager_migrations_0055_auto_20181212_1846'
p194
(dp195
g6
(dp196
g8
S'samples_manager_migrations_0055_auto_20181212_1846.html'
p197
sg10
S'samples_manager\\migrations\\0055_auto_20181212_1846'
p198
sg12
g13
(g14
g15
NtRp199
(dp200
g18
I1
sg19
I0
sg20
I5
sg21
I0
sg22
I0
sg23
I0
sg24
I0
sbssg25
S"\xc1\xcd}\x9190\\\x83Er\x8b\xed\x13'b\xa1"
p201
ssS'samples_manager_migrations_0032_archiveexperimentsample'
p202
(dp203
g6
(dp204
g8
S'samples_manager_migrations_0032_archiveexperimentsample.html'
p205
sg10
S'samples_manager\\migrations\\0032_archiveexperimentsample'
p206
sg12
g13
(g14
g15
NtRp207
(dp208
g18
I1
sg19
I0
sg20
I5
sg21
I0
sg22
I0
sg23
I0
sg24
I0
sbssg25
S'\xba\xf9\xb5\xef\x9b\x8d\r\xef\xaaMQ\\C\x0c#N'
p209
ssS'samples_manager_migrations_0025_sampleslayers_density'
p210
(dp211
g6
(dp212
g8
S'samples_manager_migrations_0025_sampleslayers_density.html'
p213
sg10
S'samples_manager\\migrations\\0025_sampleslayers_density'
p214
sg12
g13
(g14
g15
NtRp215
(dp216
g18
I1
sg19
I0
sg20
I5
sg21
I0
sg22
I0
sg23
I0
sg24
I0
sbssg25
S'9\xa3\x06R\xccS\xeb\x0c_\x95\xec\x9f\x10\x89\xc9\xad'
p217
ssS'samples_manager_migrations_0023_remove_users_irrad_ps_user'
p218
(dp219
g6
(dp220
g8
S'samples_manager_migrations_0023_remove_users_irrad_ps_user.html'
p221
sg10
S'samples_manager\\migrations\\0023_remove_users_irrad_ps_user'
p222
sg12
g13
(g14
g15
NtRp223
(dp224
g18
I1
sg19
I0
sg20
I5
sg21
I0
sg22
I0
sg23
I0
sg24
I0
sbssg25
S'{\xf4nua\xdc9\xa162\x18\xbdN\x1c\xbc-'
p225
ssS'samples_manager_migrations_0022_auto_20180608_1230'
p226
(dp227
g6
(dp228
g8
S'samples_manager_migrations_0022_auto_20180608_1230.html'
p229
sg10
S'samples_manager\\migrations\\0022_auto_20180608_1230'
p230
sg12
g13
(g14
g15
NtRp231
(dp232
g18
I1
sg19
I0
sg20
I5
sg21
I0
sg22
I0
sg23
I0
sg24
I0
sbssg25
S'J\x0bY\x8d\xe2\x92\xc7\x14\x1b\xd5}\x97\xbd\xf0M\x9c'
p233
ssS'samples_manager_migrations_0006_auto_20180410_1126'
p234
(dp235
g6
(dp236
g8
S'samples_manager_migrations_0006_auto_20180410_1126.html'
p237
sg10
S'samples_manager\\migrations\\0006_auto_20180410_1126'
p238
sg12
g13
(g14
g15
NtRp239
(dp240
g18
I1
sg19
I0
sg20
I5
sg21
I0
sg22
I0
sg23
I0
sg24
I0
sbssg25
S'\x17\x0c\x89\x8d\xa7\x0c\xb9\xeev\xf9W\xaf\xe1n\x80\xf8'
p241
ssS'samples_manager_migrations_0012_auto_20180504_0909'
p242
(dp243
g6
(dp244
g8
S'samples_manager_migrations_0012_auto_20180504_0909.html'
p245
sg10
S'samples_manager\\migrations\\0012_auto_20180504_0909'
p246
sg12
g13
(g14
g15
NtRp247
(dp248
g18
I1
sg19
I0
sg20
I5
sg21
I0
sg22
I0
sg23
I0
sg24
I0
sbssg25
S'\xfe\xa6\xe2}\xcd\xdd\x8dw\x83z\x03\xe8y)\xb9\xe2'
p249
ssS'samples_manager_migrations_0031_auto_20180808_1619'
p250
(dp251
g6
(dp252
g8
S'samples_manager_migrations_0031_auto_20180808_1619.html'
p253
sg10
S'samples_manager\\migrations\\0031_auto_20180808_1619'
p254
sg12
g13
(g14
g15
NtRp255
(dp256
g18
I1
sg19
I0
sg20
I5
sg21
I0
sg22
I0
sg23
I0
sg24
I0
sbssg25
S'\x0c\xa7\x01\xe8\xab\x80\x87\xee\xa8\xde\xee\xb5\x1b\xaf\xd4e'
p257
ssS'samples_manager_migrations_0040_auto_20181003_1444'
p258
(dp259
g6
(dp260
g8
S'samples_manager_migrations_0040_auto_20181003_1444.html'
p261
sg10
S'samples_manager\\migrations\\0040_auto_20181003_1444'
p262
sg12
g13
(g14
g15
NtRp263
(dp264
g18
I1
sg19
I0
sg20
I5
sg21
I0
sg22
I0
sg23
I0
sg24
I0
sbssg25
S'S~4*\xda\x159\x86cV\xf0\x1a\xf3\x11\xaa\xbf'
p265
ssS'samples_manager_migrations_0052_irradiation_dos_position'
p266
(dp267
g6
(dp268
g8
S'samples_manager_migrations_0052_irradiation_dos_position.html'
p269
sg10
S'samples_manager\\migrations\\0052_irradiation_dos_position'
p270
sg12
g13
(g14
g15
NtRp271
(dp272
g18
I1
sg19
I0
sg20
I5
sg21
I0
sg22
I0
sg23
I0
sg24
I0
sbssg25
S'\xe9j\xc3\xe3\xa6Z\xae\xe1\xb3\x86l\x86\xf1\x9d\xc4O'
p273
ssS'samples_manager_tests'
p274
(dp275
g6
(dp276
g8
S'samples_manager_tests.html'
p277
sg10
S'samples_manager\\tests'
p278
sg12
g13
(g14
g15
NtRp279
(dp280
g18
I1
sg19
I0
sg20
I37
sg21
I0
sg22
I0
sg23
I36
sg24
I0
sbssg25
S'\xcb\xe4}\x00\xd2\xa2b\x07d\xc6I\xd9\x9d\xed\x14\xc5'
p281
ssS'samples_manager_migrations_0049_auto_20181108_1141'
p282
(dp283
g6
(dp284
g8
S'samples_manager_migrations_0049_auto_20181108_1141.html'
p285
sg10
S'samples_manager\\migrations\\0049_auto_20181108_1141'
p286
sg12
g13
(g14
g15
NtRp287
(dp288
g18
I1
sg19
I0
sg20
I5
sg21
I0
sg22
I0
sg23
I0
sg24
I0
sbssg25
S'B\x12\xd4\xcd\xee_)Z\xb8\xc0\xa0\x18\xc6,-Q'
p289
ssS'samples_manager_migrations_0036_auto_20180914_1304'
p290
(dp291
g6
(dp292
g8
S'samples_manager_migrations_0036_auto_20180914_1304.html'
p293
sg10
S'samples_manager\\migrations\\0036_auto_20180914_1304'
p294
sg12
g13
(g14
g15
NtRp295
(dp296
g18
I1
sg19
I0
sg20
I5
sg21
I0
sg22
I0
sg23
I0
sg24
I0
sbssg25
S'Y\xdd\xdf\xec?\x00P\xc3sl\xb2\x02*\\Mo'
p297
ssS'samples_manager_migrations_0028_auto_20180711_1555'
p298
(dp299
g6
(dp300
g8
S'samples_manager_migrations_0028_auto_20180711_1555.html'
p301
sg10
S'samples_manager\\migrations\\0028_auto_20180711_1555'
p302
sg12
g13
(g14
g15
NtRp303
(dp304
g18
I1
sg19
I0
sg20
I5
sg21
I0
sg22
I0
sg23
I0
sg24
I0
sbssg25
S'\xbe\xd5\x1b\x16\xd0\xbd\x8f\xba0v,\xc2Jo\xaf\x05'
p305
ssS'samples_manager_migrations_0019_auto_20180607_1745'
p306
(dp307
g6
(dp308
g8
S'samples_manager_migrations_0019_auto_20180607_1745.html'
p309
sg10
S'samples_manager\\migrations\\0019_auto_20180607_1745'
p310
sg12
g13
(g14
g15
NtRp311
(dp312
g18
I1
sg19
I0
sg20
I5
sg21
I0
sg22
I0
sg23
I0
sg24
I0
sbssg25
S'\xc0\x1c\xc4.=\xa3\x10\xec\xb8\xd0f\x0b\x9b\x98\x97 '
p313
ssS'samples_manager_migrations_0037_auto_20180914_1307'
p314
(dp315
g6
(dp316
g8
S'samples_manager_migrations_0037_auto_20180914_1307.html'
p317
sg10
S'samples_manager\\migrations\\0037_auto_20180914_1307'
p318
sg12
g13
(g14
g15
NtRp319
(dp320
g18
I1
sg19
I0
sg20
I5
sg21
I0
sg22
I0
sg23
I0
sg24
I0
sbssg25
S'K\xe1Q\x94\x93\xd06\xab\xc2z\xfc\xca8\xac\xd6\x08'
p321
ssS'samples_manager_migrations_0061_auto_20190121_1448'
p322
(dp323
g6
(dp324
g8
S'samples_manager_migrations_0061_auto_20190121_1448.html'
p325
sg10
S'samples_manager\\migrations\\0061_auto_20190121_1448'
p326
sg12
g13
(g14
g15
NtRp327
(dp328
g18
I1
sg19
I0
sg20
I5
sg21
I0
sg22
I0
sg23
I0
sg24
I0
sbssg25
S'\xfeS,\xff\x9cM=\xa1u1S[\x04O\x13\x02'
p329
ssS'samples_manager_migrations_0014_irradation'
p330
(dp331
g6
(dp332
g8
S'samples_manager_migrations_0014_irradation.html'
p333
sg10
S'samples_manager\\migrations\\0014_irradation'
p334
sg12
g13
(g14
g15
NtRp335
(dp336
g18
I1
sg19
I0
sg20
I5
sg21
I0
sg22
I0
sg23
I0
sg24
I0
sbssg25
S'j\xdb\x89~\xc8\xca\x97EG_I\x84\xad\x90\xbap'
p337
ssS'samples_manager_migrations_0021_auto_20180608_1223'
p338
(dp339
g6
(dp340
g8
S'samples_manager_migrations_0021_auto_20180608_1223.html'
p341
sg10
S'samples_manager\\migrations\\0021_auto_20180608_1223'
p342
sg12
g13
(g14
g15
NtRp343
(dp344
g18
I1
sg19
I0
sg20
I5
sg21
I0
sg22
I0
sg23
I0
sg24
I0
sbssg25
S'\xfa\x06b\x8a5=\xf0Pk\xe4\x9ew\xe9\xd1\xab\xac'
p345
ssS'samples_manager_migrations_0001_initial'
p346
(dp347
g6
(dp348
g8
S'samples_manager_migrations_0001_initial.html'
p349
sg10
S'samples_manager\\migrations\\0001_initial'
p350
sg12
g13
(g14
g15
NtRp351
(dp352
g18
I1
sg19
I0
sg20
I6
sg21
I0
sg22
I0
sg23
I0
sg24
I0
sbssg25
S'/\xa4|\xe1\x93\xca\x05\xd2\x05\xafAg\xa6\xad#\x9f'
p353
ssS'samples_manager_migrations_0013_auto_20180507_1615'
p354
(dp355
g6
(dp356
g8
S'samples_manager_migrations_0013_auto_20180507_1615.html'
p357
sg10
S'samples_manager\\migrations\\0013_auto_20180507_1615'
p358
sg12
g13
(g14
g15
NtRp359
(dp360
g18
I1
sg19
I0
sg20
I5
sg21
I0
sg22
I0
sg23
I0
sg24
I0
sbssg25
S'p\x12\xf0\x9b\x84Y\x1e\xc1\x1fD\rs\xc2f\x04\xd4'
p361
ssS'samples_manager_migrations_0027_auto_20180711_1524'
p362
(dp363
g6
(dp364
g8
S'samples_manager_migrations_0027_auto_20180711_1524.html'
p365
sg10
S'samples_manager\\migrations\\0027_auto_20180711_1524'
p366
sg12
g13
(g14
g15
NtRp367
(dp368
g18
I1
sg19
I0
sg20
I5
sg21
I0
sg22
I0
sg23
I0
sg24
I0
sbssg25
S'\x03\xd2\xee]\xe9V\x97\x1f\xb1r\x94\xb0\x02\x06\xe7#'
p369
ssS'samples_manager_migrations_0057_auto_20190121_1324'
p370
(dp371
g6
(dp372
g8
S'samples_manager_migrations_0057_auto_20190121_1324.html'
p373
sg10
S'samples_manager\\migrations\\0057_auto_20190121_1324'
p374
sg12
g13
(g14
g15
NtRp375
(dp376
g18
I1
sg19
I0
sg20
I5
sg21
I0
sg22
I0
sg23
I0
sg24
I0
sbssg25
S'\xdd\xf5\xe7\xda\x8ac\xd3\x04\xde\xe7\xc9\x1a\x1f9\\\x14'
p377
ssS'samples_manager_migrations_0047_dosimeters_parent_dosimeter'
p378
(dp379
g6
(dp380
g8
S'samples_manager_migrations_0047_dosimeters_parent_dosimeter.html'
p381
sg10
S'samples_manager\\migrations\\0047_dosimeters_parent_dosimeter'
p382
sg12
g13
(g14
g15
NtRp383
(dp384
g18
I1
sg19
I0
sg20
I5
sg21
I0
sg22
I0
sg23
I0
sg24
I0
sbssg25
S'$\x1aY\x01QH\xf9\x94\x07\\\x1d$\xe1R\x0f&'
p385
ssS'samples_manager_migrations_0007_auto_20180418_1918'
p386
(dp387
g6
(dp388
g8
S'samples_manager_migrations_0007_auto_20180418_1918.html'
p389
sg10
S'samples_manager\\migrations\\0007_auto_20180418_1918'
p390
sg12
g13
(g14
g15
NtRp391
(dp392
g18
I1
sg19
I0
sg20
I5
sg21
I0
sg22
I0
sg23
I0
sg24
I0
sbssg25
S'\x1fc (t\xe8)\x11&f\xce\xad\xea+\xf3\x05'
p393
ssS'samples_manager_migrations_0060_auto_20190121_1404'
p394
(dp395
g6
(dp396
g8
S'samples_manager_migrations_0060_auto_20190121_1404.html'
p397
sg10
S'samples_manager\\migrations\\0060_auto_20190121_1404'
p398
sg12
g13
(g14
g15
NtRp399
(dp400
g18
I1
sg19
I0
sg20
I5
sg21
I0
sg22
I0
sg23
I0
sg24
I0
sbssg25
S'\xb9\xd6\x94t\x01\xc6\x1b\x16 X\xe4{\xab\xf1\x9e{'
p401
ssS'samples_manager_migrations_0046_irradiation_in_beam'
p402
(dp403
g6
(dp404
g8
S'samples_manager_migrations_0046_irradiation_in_beam.html'
p405
sg10
S'samples_manager\\migrations\\0046_irradiation_in_beam'
p406
sg12
g13
(g14
g15
NtRp407
(dp408
g18
I1
sg19
I0
sg20
I5
sg21
I0
sg22
I0
sg23
I0
sg24
I0
sbssg25
S'\xba\x1c\xab\x88=\x81\xd6\xeb\x942\x9eA}\xfccI'
p409
ssS'samples_manager_migrations_0024_users_last_login'
p410
(dp411
g6
(dp412
g8
S'samples_manager_migrations_0024_users_last_login.html'
p413
sg10
S'samples_manager\\migrations\\0024_users_last_login'
p414
sg12
g13
(g14
g15
NtRp415
(dp416
g18
I1
sg19
I0
sg20
I7
sg21
I0
sg22
I0
sg23
I0
sg24
I0
sbssg25
S'\xdas\x1fI\xf27\x14>\x80T\x98\xe4a\xfd\xa7\\'
p417
ssS'test-irrad-management-page_settings'
p418
(dp419
g6
(dp420
g8
S'test-irrad-management-page_settings.html'
p421
sg10
S'test-irrad-management-page\\settings'
p422
sg12
g13
(g14
g15
NtRp423
(dp424
g18
I1
sg19
I0
sg20
I30
sg21
I0
sg22
I0
sg23
I0
sg24
I0
sbssg25
S'T\x02\xbc\xff~\xcb\x7f\xba\x07P_\xba\x08\xb6\xea6'
p425
ssS'samples_manager_migrations___init__'
p426
(dp427
g6
(dp428
g8
S'samples_manager_migrations___init__.html'
p429
sg10
S'samples_manager\\migrations\\__init__'
p430
sg12
g13
(g14
g15
NtRp431
(dp432
g18
I1
sg19
I0
sg20
I0
sg21
I0
sg22
I0
sg23
I0
sg24
I0
sbssg25
S'\xb0\xc8pN\xaf>\xa0\xbaz\x144\xe0A9\xb8?'
p433
ssS'samples_manager_migrations_0059_auto_20190121_1346'
p434
(dp435
g6
(dp436
g8
S'samples_manager_migrations_0059_auto_20190121_1346.html'
p437
sg10
S'samples_manager\\migrations\\0059_auto_20190121_1346'
p438
sg12
g13
(g14
g15
NtRp439
(dp440
g18
I1
sg19
I0
sg20
I5
sg21
I0
sg22
I0
sg23
I0
sg24
I0
sbssg25
S'\rG\xe6p!\xe2Yre\x1c?E$\xad\x87\xa7'
p441
ssS'samples_manager_migrations_0062_auto_20190121_1451'
p442
(dp443
g6
(dp444
g8
S'samples_manager_migrations_0062_auto_20190121_1451.html'
p445
sg10
S'samples_manager\\migrations\\0062_auto_20190121_1451'
p446
sg12
g13
(g14
g15
NtRp447
(dp448
g18
I1
sg19
I0
sg20
I5
sg21
I0
sg22
I0
sg23
I0
sg24
I0
sbssg25
S'\xcd\xceD\xd2\xee4\xc9\xdd\xe2&\x9a\x9d\x8e\xce\xcf\xcd'
p449
ssS'samples_manager_migrations_0048_auto_20181107_1824'
p450
(dp451
g6
(dp452
g8
S'samples_manager_migrations_0048_auto_20181107_1824.html'
p453
sg10
S'samples_manager\\migrations\\0048_auto_20181107_1824'
p454
sg12
g13
(g14
g15
NtRp455
(dp456
g18
I1
sg19
I0
sg20
I5
sg21
I0
sg22
I0
sg23
I0
sg24
I0
sbssg25
S'&\x9e#\x82\x98\xf0\xedC{\xa9\xf6\x93\x8a\xc2\x0fK'
p457
ssS'samples_manager_migrations_0026_auto_20180709_1603'
p458
(dp459
g6
(dp460
g8
S'samples_manager_migrations_0026_auto_20180709_1603.html'
p461
sg10
S'samples_manager\\migrations\\0026_auto_20180709_1603'
p462
sg12
g13
(g14
g15
NtRp463
(dp464
g18
I1
sg19
I0
sg20
I6
sg21
I0
sg22
I0
sg23
I0
sg24
I0
sbssg25
S'Bi\xd4_txQ\xa9\x17\x97)\xa5$"j\xaa'
p465
ssS'samples_manager_migrations_0041_auto_20181003_1739'
p466
(dp467
g6
(dp468
g8
S'samples_manager_migrations_0041_auto_20181003_1739.html'
p469
sg10
S'samples_manager\\migrations\\0041_auto_20181003_1739'
p470
sg12
g13
(g14
g15
NtRp471
(dp472
g18
I1
sg19
I0
sg20
I5
sg21
I0
sg22
I0
sg23
I0
sg24
I0
sbssg25
S'\xcfH\x98\xd7b!\xdcj\xa6e\xc7\xf0\xef_G\xdf'
p473
ssS'samples_manager_migrations_0003_auto_20180410_1119'
p474
(dp475
g6
(dp476
g8
S'samples_manager_migrations_0003_auto_20180410_1119.html'
p477
sg10
S'samples_manager\\migrations\\0003_auto_20180410_1119'
p478
sg12
g13
(g14
g15
NtRp479
(dp480
g18
I1
sg19
I0
sg20
I5
sg21
I0
sg22
I0
sg23
I0
sg24
I0
sbssg25
S'\xa3\x80\x91\xbf\xf5E\rf\xe8\xc1\xa3\x0e\xac\x02\xed\xb2'
p481
ssS'samples_manager_migrations_0033_archiveexperimentsample_timestamp'
p482
(dp483
g6
(dp484
g8
S'samples_manager_migrations_0033_archiveexperimentsample_timestamp.html'
p485
sg10
S'samples_manager\\migrations\\0033_archiveexperimentsample_timestamp'
p486
sg12
g13
(g14
g15
NtRp487
(dp488
g18
I1
sg19
I0
sg20
I7
sg21
I0
sg22
I0
sg23
I0
sg24
I0
sbssg25
S'\x1a>\xdfK\x17\xe2\x88\xf4%\x07\xe6\xc9o%\x7f6'
p489
ssS'samples_manager_migrations_0045_irradiation_comments'
p490
(dp491
g6
(dp492
g8
S'samples_manager_migrations_0045_irradiation_comments.html'
p493
sg10
S'samples_manager\\migrations\\0045_irradiation_comments'
p494
sg12
g13
(g14
g15
NtRp495
(dp496
g18
I1
sg19
I0
sg20
I5
sg21
I0
sg22
I0
sg23
I0
sg24
I0
sbssg25
S"\x03\xe5\x8d\x9b\xf0N\x03'\xb8\xaa\xb5a\x18\xf0\xb7\x82"
p497
ssS'samples_manager_migrations_0050_auto_20181108_1153'
p498
(dp499
g6
(dp500
g8
S'samples_manager_migrations_0050_auto_20181108_1153.html'
p501
sg10
S'samples_manager\\migrations\\0050_auto_20181108_1153'
p502
sg12
g13
(g14
g15
NtRp503
(dp504
g18
I1
sg19
I0
sg20
I5
sg21
I0
sg22
I0
sg23
I0
sg24
I0
sbssg25
S'o\xc8d\xac\xc59,.\xbd"o\x8a\xb6*1\xbd'
p505
ssS'samples_manager_migrations_0029_auto_20180711_1603'
p506
(dp507
g6
(dp508
g8
S'samples_manager_migrations_0029_auto_20180711_1603.html'
p509
sg10
S'samples_manager\\migrations\\0029_auto_20180711_1603'
p510
sg12
g13
(g14
g15
NtRp511
(dp512
g18
I1
sg19
I0
sg20
I5
sg21
I0
sg22
I0
sg23
I0
sg24
I0
sbssg25
S'1\x0e\xbci\xaa\xc9}2\xc3\xb4\t\xc6\xd9\x8c\xd7\x99'
p513
ssS'samples_manager___init__'
p514
(dp515
g6
(dp516
g8
S'samples_manager___init__.html'
p517
sg10
S'samples_manager\\__init__'
p518
sg12
g13
(g14
g15
NtRp519
(dp520
g18
I1
sg19
I0
sg20
I0
sg21
I0
sg22
I0
sg23
I0
sg24
I0
sbssg25
S'\xb0\xc8pN\xaf>\xa0\xbaz\x144\xe0A9\xb8?'
p521
ssS'samples_manager_migrations_0038_userpreferences'
p522
(dp523
g6
(dp524
g8
S'samples_manager_migrations_0038_userpreferences.html'
p525
sg10
S'samples_manager\\migrations\\0038_userpreferences'
p526
sg12
g13
(g14
g15
NtRp527
(dp528
g18
I1
sg19
I0
sg20
I5
sg21
I0
sg22
I0
sg23
I0
sg24
I0
sbssg25
S'\x17\xc5\x8c/\xc7\xf9}Owu\xb3\xf9\xb9\xbe\x9dV'
p529
ssS'samples_manager_migrations_0051_experiments_public_experiment'
p530
(dp531
g6
(dp532
g8
S'samples_manager_migrations_0051_experiments_public_experiment.html'
p533
sg10
S'samples_manager\\migrations\\0051_experiments_public_experiment'
p534
sg12
g13
(g14
g15
NtRp535
(dp536
g18
I1
sg19
I0
sg20
I5
sg21
I0
sg22
I0
sg23
I0
sg24
I0
sbssg25
S'\xca\x0e\xf9\xfb \xc2\xff\xc3Z\x02C\x1c\xd6\xfe"\x11'
p537
ssS'samples_manager_migrations_0009_auto_20180418_1936'
p538
(dp539
g6
(dp540
g8
S'samples_manager_migrations_0009_auto_20180418_1936.html'
p541
sg10
S'samples_manager\\migrations\\0009_auto_20180418_1936'
p542
sg12
g13
(g14
g15
NtRp543
(dp544
g18
I1
sg19
I0
sg20
I5
sg21
I0
sg22
I0
sg23
I0
sg24
I0
sbssg25
S"\xb6.\xd3 \xcf\xdf\xa2\x85y'\xf7\x85v\xa1y7"
p545
ssS'test-irrad-management-page___init__'
p546
(dp547
g6
(dp548
g8
S'test-irrad-management-page___init__.html'
p549
sg10
S'test-irrad-management-page\\__init__'
p550
sg12
g13
(g14
g15
NtRp551
(dp552
g18
I1
sg19
I0
sg20
I0
sg21
I0
sg22
I0
sg23
I0
sg24
I0
sbssg25
S'\xb0\xc8pN\xaf>\xa0\xbaz\x144\xe0A9\xb8?'
p553
ssS'samples_manager_migrations_0042_userpreferences_menu_theme'
p554
(dp555
g6
(dp556
g8
S'samples_manager_migrations_0042_userpreferences_menu_theme.html'
p557
sg10
S'samples_manager\\migrations\\0042_userpreferences_menu_theme'
p558
sg12
g13
(g14
g15
NtRp559
(dp560
g18
I1
sg19
I0
sg20
I5
sg21
I0
sg22
I0
sg23
I0
sg24
I0
sbssg25
S'N\xdf*b\r\xa0\xad5\x93\xe6\xf1\x7f\x93\x824\x9d'
p561
ssS'samples_manager_migrations_0053_auto_20181212_1839'
p562
(dp563
g6
(dp564
g8
S'samples_manager_migrations_0053_auto_20181212_1839.html'
p565
sg10
S'samples_manager\\migrations\\0053_auto_20181212_1839'
p566
sg12
g13
(g14
g15
NtRp567
(dp568
g18
I1
sg19
I0
sg20
I5
sg21
I0
sg22
I0
sg23
I0
sg24
I0
sbssg25
S'\x82\x82\xaf\x1e\x93\xc9\xa6\x8c\xd3L\xa8\x96,J\x19P'
p569
ssS'samples_manager_migrations_0039_auto_20181003_1435'
p570
(dp571
g6
(dp572
g8
S'samples_manager_migrations_0039_auto_20181003_1435.html'
p573
sg10
S'samples_manager\\migrations\\0039_auto_20181003_1435'
p574
sg12
g13
(g14
g15
NtRp575
(dp576
g18
I1
sg19
I0
sg20
I5
sg21
I0
sg22
I0
sg23
I0
sg24
I0
sbssg25
S'\xf5[\xfc\xd05\xd14\xb7\xeaU\xa7\x087\xb0\x9aX'
p577
sssS'settings'
p578
S'3\xcf\xa1\x19.\x88o$\x8cA\xde\xbd\xcd\x06\xa1\x0f'
p579
sS'version'
p580
S'3.6'
p581
sS'format'
p582
I1
s.